target datalayout = "e-m:e-p270:32:32-p271:32:32-p272:64:64-i64:64-i128:128-f80:128-n8:16:32:64-S128"
target triple = "x86_64-pc-linux-gnu"

%"class.std::basic_string_view" = type { i64, ptr }
%"class.absl::Cord::ChunkIterator" = type { %"class.std::basic_string_view", ptr, i64, %"class.absl::cord_internal::CordRepBtreeReader" }
%"class.absl::cord_internal::CordRepBtreeReader" = type { i64, %"class.absl::cord_internal::CordRepBtreeNavigator" }
%"class.absl::cord_internal::CordRepBtreeNavigator" = type { i32, [12 x i8], [12 x ptr] }
%"class.absl::Cord::CharIterator" = type { %"class.absl::Cord::ChunkIterator" }

; Function Attrs: inlinehint mustprogress nounwind uwtable
define linkonce_odr dso_local void @_ZN4absl13cord_internal21CordRepBtreeNavigatorC2Ev(ptr noundef nonnull align 8 dereferenceable(112) %0) unnamed_addr #8 comdat align 2 {
  %2 = alloca ptr, align 8
  store ptr %0, ptr %2, align 8, !tbaa !206
  %3 = load ptr, ptr %2, align 8
  %4 = getelementptr inbounds nuw %"class.absl::cord_internal::CordRepBtreeNavigator", ptr %3, i32 0, i32 0
  store i32 -1, ptr %4, align 8, !tbaa !208
  ret void
}

; Function Attrs: inlinehint mustprogress nounwind uwtable
define linkonce_odr dso_local void @_ZN4absl13cord_internal18CordRepBtreeReaderC2Ev(ptr noundef nonnull align 8 dereferenceable(120) %0) unnamed_addr #8 comdat align 2 {
  %2 = alloca ptr, align 8
  store ptr %0, ptr %2, align 8, !tbaa !122
  %3 = load ptr, ptr %2, align 8
  %4 = getelementptr inbounds nuw %"class.absl::cord_internal::CordRepBtreeReader", ptr %3, i32 0, i32 0
  store i64 0, ptr %4, align 8, !tbaa !124
  %5 = getelementptr inbounds nuw %"class.absl::cord_internal::CordRepBtreeReader", ptr %3, i32 0, i32 1
  call void @_ZN4absl13cord_internal21CordRepBtreeNavigatorC2Ev(ptr noundef nonnull align 8 dereferenceable(112) %5) #3
  ret void
}

; Function Attrs: mustprogress nounwind uwtable
define linkonce_odr dso_local void @_ZNSt17basic_string_viewIcSt11char_traitsIcEEC2Ev(ptr noundef nonnull align 8 dereferenceable(16) %0) unnamed_addr #5 comdat align 2 {
  %2 = alloca ptr, align 8
  store ptr %0, ptr %2, align 8, !tbaa !40
  %3 = load ptr, ptr %2, align 8
  %4 = getelementptr inbounds nuw %"class.std::basic_string_view", ptr %3, i32 0, i32 0
  store i64 0, ptr %4, align 8, !tbaa !42
  %5 = getelementptr inbounds nuw %"class.std::basic_string_view", ptr %3, i32 0, i32 1
  store ptr null, ptr %5, align 8, !tbaa !44
  ret void
}

; Function Attrs: inlinehint mustprogress nounwind uwtable
define linkonce_odr dso_local noundef zeroext i1 @_ZNK4absl4Cord13ChunkIteratoreqERKS1_(ptr noundef nonnull align 8 dereferenceable(152) %0, ptr noundef nonnull align 8 dereferenceable(152) %1) #8 comdat align 2 {
  %3 = alloca ptr, align 8
  %4 = alloca ptr, align 8
  store ptr %0, ptr %3, align 8, !tbaa !95
  store ptr %1, ptr %4, align 8, !tbaa !95
  %5 = load ptr, ptr %3, align 8
  %6 = getelementptr inbounds nuw %"class.absl::Cord::ChunkIterator", ptr %5, i32 0, i32 2
  %7 = load i64, ptr %6, align 8, !tbaa !97
  %8 = load ptr, ptr %4, align 8, !tbaa !95
  %9 = getelementptr inbounds nuw %"class.absl::Cord::ChunkIterator", ptr %8, i32 0, i32 2
  %10 = load i64, ptr %9, align 8, !tbaa !97
  %11 = icmp eq i64 %7, %10
  ret i1 %11
}

; Function Attrs: mustprogress nounwind uwtable
define linkonce_odr dso_local void @_ZN4absl4Cord13ChunkIteratorC2Ev(ptr noundef nonnull align 8 dereferenceable(152) %0) unnamed_addr #5 comdat align 2 {
  %2 = alloca ptr, align 8
  store ptr %0, ptr %2, align 8, !tbaa !95
  %3 = load ptr, ptr %2, align 8
  %4 = getelementptr inbounds nuw %"class.absl::Cord::ChunkIterator", ptr %3, i32 0, i32 0
  call void @_ZNSt17basic_string_viewIcSt11char_traitsIcEEC2Ev(ptr noundef nonnull align 8 dereferenceable(16) %4) #3
  %5 = getelementptr inbounds nuw %"class.absl::Cord::ChunkIterator", ptr %3, i32 0, i32 1
  store ptr null, ptr %5, align 8, !tbaa !121
  %6 = getelementptr inbounds nuw %"class.absl::Cord::ChunkIterator", ptr %3, i32 0, i32 2
  store i64 0, ptr %6, align 8, !tbaa !97
  %7 = getelementptr inbounds nuw %"class.absl::Cord::ChunkIterator", ptr %3, i32 0, i32 3
  call void @_ZN4absl13cord_internal18CordRepBtreeReaderC2Ev(ptr noundef nonnull align 8 dereferenceable(120) %7) #3
  ret void
}

; Function Attrs: inlinehint mustprogress nounwind uwtable
define linkonce_odr dso_local noundef zeroext i1 @_ZNK4absl4Cord12CharIteratoreqERKS1_(ptr noundef nonnull align 8 dereferenceable(152) %0, ptr noundef nonnull align 8 dereferenceable(152) %1) #8 comdat align 2 {
  %3 = alloca ptr, align 8
  %4 = alloca ptr, align 8
  store ptr %0, ptr %3, align 8, !tbaa !130
  store ptr %1, ptr %4, align 8, !tbaa !130
  %5 = load ptr, ptr %3, align 8
  %6 = getelementptr inbounds nuw %"class.absl::Cord::CharIterator", ptr %5, i32 0, i32 0
  %7 = load ptr, ptr %4, align 8, !tbaa !130
  %8 = getelementptr inbounds nuw %"class.absl::Cord::CharIterator", ptr %7, i32 0, i32 0
  %9 = call noundef zeroext i1 @_ZNK4absl4Cord13ChunkIteratoreqERKS1_(ptr noundef nonnull align 8 dereferenceable(152) %6, ptr noundef nonnull align 8 dereferenceable(152) %8)
  ret i1 %9
}

; Function Attrs: mustprogress nounwind uwtable
define linkonce_odr dso_local void @_ZN4absl4Cord12CharIteratorC2Ev(ptr noundef nonnull align 8 dereferenceable(152) %0) unnamed_addr #5 comdat align 2 {
  %2 = alloca ptr, align 8
  store ptr %0, ptr %2, align 8, !tbaa !130
  %3 = load ptr, ptr %2, align 8
  %4 = getelementptr inbounds nuw %"class.absl::Cord::CharIterator", ptr %3, i32 0, i32 0
  call void @_ZN4absl4Cord13ChunkIteratorC2Ev(ptr noundef nonnull align 8 dereferenceable(152) %4) #3
  ret void
}

; Function Attrs: inlinehint mustprogress nounwind uwtable
define linkonce_odr dso_local noundef zeroext i1 @_ZNK4absl4Cord12CharIteratorneERKS1_(ptr noundef nonnull align 8 dereferenceable(152) %0, ptr noundef nonnull align 8 dereferenceable(152) %1) #8 comdat align 2 {
  %3 = alloca ptr, align 8
  %4 = alloca ptr, align 8
  store ptr %0, ptr %3, align 8, !tbaa !130
  store ptr %1, ptr %4, align 8, !tbaa !130
  %5 = load ptr, ptr %3, align 8
  %6 = load ptr, ptr %4, align 8, !tbaa !130
  %7 = call noundef zeroext i1 @_ZNK4absl4Cord12CharIteratoreqERKS1_(ptr noundef nonnull align 8 dereferenceable(152) %5, ptr noundef nonnull align 8 dereferenceable(152) %6)
  %8 = xor i1 %7, true
  ret i1 %8
}

; Function Attrs: inlinehint mustprogress nounwind uwtable
define linkonce_odr dso_local void @_ZNK4absl4Cord8char_endEv(ptr dead_on_unwind noalias writable sret(%"class.absl::Cord::CharIterator") align 8 %0, ptr noundef nonnull align 8 dereferenceable(16) %1) #8 comdat align 2 {
  %3 = alloca ptr, align 8
  store ptr %1, ptr %3, align 8, !tbaa !4
  call void @llvm.memset.p0.i64(ptr align 8 %0, i8 0, i64 152, i1 false)
  call void @_ZN4absl4Cord12CharIteratorC2Ev(ptr noundef nonnull align 8 dereferenceable(152) %0) #3
  ret void
}

; Function Attrs: mustprogress nounwind uwtable
define linkonce_odr dso_local noundef zeroext i1 @_ZNKSt17basic_string_viewIcSt11char_traitsIcEE5emptyEv(ptr noundef nonnull align 8 dereferenceable(16) %0) #5 comdat align 2 {
  %2 = alloca ptr, align 8
  store ptr %0, ptr %2, align 8, !tbaa !40
  %3 = load ptr, ptr %2, align 8
  %4 = getelementptr inbounds nuw %"class.std::basic_string_view", ptr %3, i32 0, i32 0
  %5 = load i64, ptr %4, align 8, !tbaa !42
  %6 = icmp eq i64 %5, 0
  ret i1 %6
}

; Function Attrs: mustprogress uwtable
define dso_local noundef zeroext i1 @_ZNK4absl4Cord8ContainsESt17basic_string_viewIcSt11char_traitsIcEE(ptr noundef nonnull align 8 dereferenceable(16) %0, i64 %1, ptr %2) #4 align 2 {
  %4 = alloca %"class.std::basic_string_view", align 8
  %5 = alloca ptr, align 8
  %6 = alloca %"class.absl::Cord::CharIterator", align 8
  %7 = alloca %"class.std::basic_string_view", align 8
  %8 = alloca %"class.absl::Cord::CharIterator", align 8
  %9 = getelementptr inbounds nuw { i64, ptr }, ptr %4, i32 0, i32 0
  store i64 %1, ptr %9, align 8
  %10 = getelementptr inbounds nuw { i64, ptr }, ptr %4, i32 0, i32 1
  store ptr %2, ptr %10, align 8
  store ptr %0, ptr %5, align 8, !tbaa !4
  %11 = load ptr, ptr %5, align 8
  %12 = call noundef zeroext i1 @_ZNKSt17basic_string_viewIcSt11char_traitsIcEE5emptyEv(ptr noundef nonnull align 8 dereferenceable(16) %4) #3
  call void @llvm.lifetime.start.p0(i64 152, ptr %6) #3
  call void @llvm.lifetime.start.p0(i64 152, ptr %8) #3
  br i1 %12, label %19, label %13

13:                                               ; preds = %3
  call void @llvm.memcpy.p0.p0.i64(ptr align 8 %7, ptr align 8 %4, i64 16, i1 false), !tbaa.struct !24
  %14 = getelementptr inbounds nuw { i64, ptr }, ptr %7, i32 0, i32 0
  %15 = load i64, ptr %14, align 8
  %16 = getelementptr inbounds nuw { i64, ptr }, ptr %7, i32 0, i32 1
  %17 = load ptr, ptr %16, align 8
  call void @_ZNK4absl4Cord4FindESt17basic_string_viewIcSt11char_traitsIcEE(ptr dead_on_unwind writable sret(%"class.absl::Cord::CharIterator") align 8 %6, ptr noundef nonnull align 8 dereferenceable(16) %11, i64 %15, ptr %17)
  call void @_ZNK4absl4Cord8char_endEv(ptr dead_on_unwind writable sret(%"class.absl::Cord::CharIterator") align 8 %8, ptr noundef nonnull align 8 dereferenceable(16) %11)
  %18 = call noundef zeroext i1 @_ZNK4absl4Cord12CharIteratorneERKS1_(ptr noundef nonnull align 8 dereferenceable(152) %6, ptr noundef nonnull align 8 dereferenceable(152) %8)
  br label %19

19:                                               ; preds = %13, %3
  %20 = phi i1 [ true, %3 ], [ %18, %13 ]
  call void @llvm.lifetime.end.p0(i64 152, ptr %8) #3
  call void @llvm.lifetime.end.p0(i64 152, ptr %6) #3
  ret i1 %20
}