; Function Attrs: mustprogress uwtable
define dso_local noundef zeroext i1 @_ZNK4absl4Cord8ContainsESt17basic_string_viewIcSt11char_traitsIcEE(ptr noundef nonnull align 8 dereferenceable(16) %0, i64 %1, ptr %2) local_unnamed_addr #3 align 2 {
  %4 = alloca %"class.absl::Cord::CharIterator", align 8
  %5 = icmp eq i64 %1, 0
  call void @llvm.lifetime.start.p0(i64 152, ptr nonnull %4) #27
  br i1 %5, label %10, label %6

6:                                                ; preds = %3
  call void @_ZNK4absl4Cord4FindESt17basic_string_viewIcSt11char_traitsIcEE(ptr dead_on_unwind nonnull writable sret(%"class.absl::Cord::CharIterator") align 8 %4, ptr noundef nonnull align 8 dereferenceable(16) %0, i64 %1, ptr %2)
  %7 = getelementptr inbounds nuw i8, ptr %4, i64 24
  %8 = load i64, ptr %7, align 8, !tbaa !101
  %9 = icmp ne i64 %8, 0
  br label %10

10:                                               ; preds = %6, %3
  %11 = phi i1 [ true, %3 ], [ %9, %6 ]
  call void @llvm.lifetime.end.p0(i64 152, ptr nonnull %4) #27
  ret i1 %11
}